target datalayout = "e-m:e-p270:32:32-p271:32:32-p272:64:64-i64:64-i128:128-f80:128-n8:16:32:64-S128"
target triple = "x86_64-pc-linux-gnu"

%"class.std::initializer_list.36" = type { ptr, i64 }
%"struct.std::pair" = type { i32, i32 }
%"struct.__gnu_cxx::__ops::_Iter_comp_val" = type { i8 }

@unicode_map_lowercase = external global %"class.std::initializer_list.36", align 8

; Function Attrs: inlinehint mustprogress nounwind uwtable
define internal noundef zeroext i1 @"_ZZ15unicode_tolowerjENK3$_0clERKSt4pairIjjEj"(ptr noundef nonnull align 1 dereferenceable(1) %0, ptr noundef nonnull align 4 dereferenceable(8) %1, i32 noundef %2) #10 align 2 {
  %4 = alloca ptr, align 8
  %5 = alloca ptr, align 8
  %6 = alloca i32, align 4
  store ptr %0, ptr %4, align 8, !tbaa !126
  store ptr %1, ptr %5, align 8, !tbaa !59
  store i32 %2, ptr %6, align 4, !tbaa !13
  %7 = load ptr, ptr %5, align 8, !tbaa !59
  %8 = getelementptr inbounds nuw %"struct.std::pair", ptr %7, i32 0, i32 0
  %9 = load i32, ptr %8, align 4, !tbaa !81
  %10 = load i32, ptr %6, align 4, !tbaa !13
  %11 = icmp ult i32 %9, %10
  ret i1 %11
}

; Function Attrs: inlinehint mustprogress nounwind uwtable
define linkonce_odr void @_ZSt9__advanceIPKSt4pairIjjElEvRT_T0_St26random_access_iterator_tag(ptr noundef nonnull align 8 dereferenceable(8) %0, i64 noundef %1) #10 comdat {
  %3 = alloca ptr, align 8
  %4 = alloca i64, align 8
  store ptr %0, ptr %3, align 8, !tbaa !2202
  store i64 %1, ptr %4, align 8, !tbaa !6
  %5 = load i64, ptr %4, align 8, !tbaa !6
  %6 = call i1 @llvm.is.constant.i64(i64 %5)
  br i1 %6, label %7, label %14

7:                                                ; preds = %2
  %8 = load i64, ptr %4, align 8, !tbaa !6
  %9 = icmp eq i64 %8, 1
  br i1 %9, label %10, label %14

10:                                               ; preds = %7
  %11 = load ptr, ptr %3, align 8, !tbaa !2202
  %12 = load ptr, ptr %11, align 8, !tbaa !59
  %13 = getelementptr inbounds nuw %"struct.std::pair", ptr %12, i32 1
  store ptr %13, ptr %11, align 8, !tbaa !59
  br label %30

14:                                               ; preds = %7, %2
  %15 = load i64, ptr %4, align 8, !tbaa !6
  %16 = call i1 @llvm.is.constant.i64(i64 %15)
  br i1 %16, label %17, label %24

17:                                               ; preds = %14
  %18 = load i64, ptr %4, align 8, !tbaa !6
  %19 = icmp eq i64 %18, -1
  br i1 %19, label %20, label %24

20:                                               ; preds = %17
  %21 = load ptr, ptr %3, align 8, !tbaa !2202
  %22 = load ptr, ptr %21, align 8, !tbaa !59
  %23 = getelementptr inbounds %"struct.std::pair", ptr %22, i32 -1
  store ptr %23, ptr %21, align 8, !tbaa !59
  br label %29

24:                                               ; preds = %17, %14
  %25 = load i64, ptr %4, align 8, !tbaa !6
  %26 = load ptr, ptr %3, align 8, !tbaa !2202
  %27 = load ptr, ptr %26, align 8, !tbaa !59
  %28 = getelementptr inbounds %"struct.std::pair", ptr %27, i64 %25
  store ptr %28, ptr %26, align 8, !tbaa !59
  br label %29

29:                                               ; preds = %24, %20
  br label %30

30:                                               ; preds = %29, %10
  ret void
}

; Function Attrs: inlinehint mustprogress nounwind uwtable
define linkonce_odr noundef i64 @_ZSt10__distanceIPKSt4pairIjjEENSt15iterator_traitsIT_E15difference_typeES5_S5_St26random_access_iterator_tag(ptr noundef %0, ptr noundef %1) #10 comdat {
  %3 = alloca ptr, align 8
  %4 = alloca ptr, align 8
  store ptr %0, ptr %3, align 8, !tbaa !59
  store ptr %1, ptr %4, align 8, !tbaa !59
  %5 = load ptr, ptr %4, align 8, !tbaa !59
  %6 = load ptr, ptr %3, align 8, !tbaa !59
  %7 = ptrtoint ptr %5 to i64
  %8 = ptrtoint ptr %6 to i64
  %9 = sub i64 %7, %8
  %10 = sdiv exact i64 %9, 8
  ret i64 %10
}

; Function Attrs: inlinehint mustprogress nounwind uwtable
define linkonce_odr void @_ZSt19__iterator_categoryIPKSt4pairIjjEENSt15iterator_traitsIT_E17iterator_categoryERKS5_(ptr noundef nonnull align 8 dereferenceable(8) %0) #10 comdat {
  %2 = alloca ptr, align 8
  store ptr %0, ptr %2, align 8, !tbaa !2202
  ret void
}

; Function Attrs: mustprogress uwtable
define internal noundef zeroext i1 @"_ZN9__gnu_cxx5__ops14_Iter_comp_valIZ15unicode_tolowerjE3$_0EclIPKSt4pairIjjEKjEEbT_RT0_"(ptr noundef nonnull align 1 dereferenceable(1) %0, ptr noundef %1, ptr noundef nonnull align 4 dereferenceable(4) %2) #3 align 2 {
  %4 = alloca ptr, align 8
  %5 = alloca ptr, align 8
  %6 = alloca ptr, align 8
  store ptr %0, ptr %4, align 8, !tbaa !2204
  store ptr %1, ptr %5, align 8, !tbaa !59
  store ptr %2, ptr %6, align 8, !tbaa !37
  %7 = load ptr, ptr %4, align 8
  %8 = load ptr, ptr %5, align 8, !tbaa !59
  %9 = load ptr, ptr %6, align 8, !tbaa !37
  %10 = load i32, ptr %9, align 4, !tbaa !13
  %11 = call noundef zeroext i1 @"_ZZ15unicode_tolowerjENK3$_0clERKSt4pairIjjEj"(ptr noundef nonnull align 1 dereferenceable(1) %7, ptr noundef nonnull align 4 dereferenceable(8) %8, i32 noundef %10)
  ret i1 %11
}

; Function Attrs: inlinehint mustprogress uwtable
define linkonce_odr void @_ZSt7advanceIPKSt4pairIjjElEvRT_T0_(ptr noundef nonnull align 8 dereferenceable(8) %0, i64 noundef %1) #6 comdat {
  %3 = alloca ptr, align 8
  %4 = alloca i64, align 8
  %5 = alloca i64, align 8
  store ptr %0, ptr %3, align 8, !tbaa !2202
  store i64 %1, ptr %4, align 8, !tbaa !6
  call void @llvm.lifetime.start.p0(i64 8, ptr %5) #9
  %6 = load i64, ptr %4, align 8, !tbaa !6
  store i64 %6, ptr %5, align 8, !tbaa !6
  %7 = load ptr, ptr %3, align 8, !tbaa !2202
  %8 = load i64, ptr %5, align 8, !tbaa !6
  %9 = load ptr, ptr %3, align 8, !tbaa !2202
  call void @_ZSt19__iterator_categoryIPKSt4pairIjjEENSt15iterator_traitsIT_E17iterator_categoryERKS5_(ptr noundef nonnull align 8 dereferenceable(8) %9)
  call void @_ZSt9__advanceIPKSt4pairIjjElEvRT_T0_St26random_access_iterator_tag(ptr noundef nonnull align 8 dereferenceable(8) %7, i64 noundef %8)
  call void @llvm.lifetime.end.p0(i64 8, ptr %5) #9
  ret void
}

; Function Attrs: inlinehint mustprogress uwtable
define linkonce_odr noundef i64 @_ZSt8distanceIPKSt4pairIjjEENSt15iterator_traitsIT_E15difference_typeES5_S5_(ptr noundef %0, ptr noundef %1) #6 comdat {
  %3 = alloca ptr, align 8
  %4 = alloca ptr, align 8
  store ptr %0, ptr %3, align 8, !tbaa !59
  store ptr %1, ptr %4, align 8, !tbaa !59
  %5 = load ptr, ptr %3, align 8, !tbaa !59
  %6 = load ptr, ptr %4, align 8, !tbaa !59
  call void @_ZSt19__iterator_categoryIPKSt4pairIjjEENSt15iterator_traitsIT_E17iterator_categoryERKS5_(ptr noundef nonnull align 8 dereferenceable(8) %3)
  %7 = call noundef i64 @_ZSt10__distanceIPKSt4pairIjjEENSt15iterator_traitsIT_E15difference_typeES5_S5_St26random_access_iterator_tag(ptr noundef %5, ptr noundef %6)
  ret i64 %7
}

; Function Attrs: mustprogress nounwind uwtable
define internal void @"_ZN9__gnu_cxx5__ops14_Iter_comp_valIZ15unicode_tolowerjE3$_0EC2ES2_"(ptr noundef nonnull align 1 dereferenceable(1) %0) unnamed_addr #0 align 2 {
  %2 = alloca ptr, align 8
  store ptr %0, ptr %2, align 8, !tbaa !2204
  ret void
}

; Function Attrs: mustprogress uwtable
define internal noundef ptr @"_ZSt13__lower_boundIPKSt4pairIjjEjN9__gnu_cxx5__ops14_Iter_comp_valIZ15unicode_tolowerjE3$_0EEET_S9_S9_RKT0_T1_"(ptr noundef %0, ptr noundef %1, ptr noundef nonnull align 4 dereferenceable(4) %2) #3 {
  %4 = alloca %"struct.__gnu_cxx::__ops::_Iter_comp_val", align 1
  %5 = alloca ptr, align 8
  %6 = alloca ptr, align 8
  %7 = alloca ptr, align 8
  %8 = alloca i64, align 8
  %9 = alloca i64, align 8
  %10 = alloca ptr, align 8
  store ptr %0, ptr %5, align 8, !tbaa !59
  store ptr %1, ptr %6, align 8, !tbaa !59
  store ptr %2, ptr %7, align 8, !tbaa !37
  call void @llvm.lifetime.start.p0(i64 8, ptr %8) #9
  %11 = load ptr, ptr %5, align 8, !tbaa !59
  %12 = load ptr, ptr %6, align 8, !tbaa !59
  %13 = call noundef i64 @_ZSt8distanceIPKSt4pairIjjEENSt15iterator_traitsIT_E15difference_typeES5_S5_(ptr noundef %11, ptr noundef %12)
  store i64 %13, ptr %8, align 8, !tbaa !6
  br label %14

14:                                               ; preds = %35, %3
  %15 = load i64, ptr %8, align 8, !tbaa !6
  %16 = icmp sgt i64 %15, 0
  br i1 %16, label %17, label %36

17:                                               ; preds = %14
  call void @llvm.lifetime.start.p0(i64 8, ptr %9) #9
  %18 = load i64, ptr %8, align 8, !tbaa !6
  %19 = ashr i64 %18, 1
  store i64 %19, ptr %9, align 8, !tbaa !6
  call void @llvm.lifetime.start.p0(i64 8, ptr %10) #9
  %20 = load ptr, ptr %5, align 8, !tbaa !59
  store ptr %20, ptr %10, align 8, !tbaa !59
  %21 = load i64, ptr %9, align 8, !tbaa !6
  call void @_ZSt7advanceIPKSt4pairIjjElEvRT_T0_(ptr noundef nonnull align 8 dereferenceable(8) %10, i64 noundef %21)
  %22 = load ptr, ptr %10, align 8, !tbaa !59
  %23 = load ptr, ptr %7, align 8, !tbaa !37
  %24 = call noundef zeroext i1 @"_ZN9__gnu_cxx5__ops14_Iter_comp_valIZ15unicode_tolowerjE3$_0EclIPKSt4pairIjjEKjEEbT_RT0_"(ptr noundef nonnull align 1 dereferenceable(1) %4, ptr noundef %22, ptr noundef nonnull align 4 dereferenceable(4) %23)
  br i1 %24, label %25, label %33

25:                                               ; preds = %17
  %26 = load ptr, ptr %10, align 8, !tbaa !59
  store ptr %26, ptr %5, align 8, !tbaa !59
  %27 = load ptr, ptr %5, align 8, !tbaa !59
  %28 = getelementptr inbounds nuw %"struct.std::pair", ptr %27, i32 1
  store ptr %28, ptr %5, align 8, !tbaa !59
  %29 = load i64, ptr %8, align 8, !tbaa !6
  %30 = load i64, ptr %9, align 8, !tbaa !6
  %31 = sub nsw i64 %29, %30
  %32 = sub nsw i64 %31, 1
  store i64 %32, ptr %8, align 8, !tbaa !6
  br label %35

33:                                               ; preds = %17
  %34 = load i64, ptr %9, align 8, !tbaa !6
  store i64 %34, ptr %8, align 8, !tbaa !6
  br label %35

35:                                               ; preds = %33, %25
  call void @llvm.lifetime.end.p0(i64 8, ptr %10) #9
  call void @llvm.lifetime.end.p0(i64 8, ptr %9) #9
  br label %14, !llvm.loop !2201

36:                                               ; preds = %14
  %37 = load ptr, ptr %5, align 8, !tbaa !59
  call void @llvm.lifetime.end.p0(i64 8, ptr %8) #9
  ret ptr %37
}

; Function Attrs: inlinehint mustprogress uwtable
define internal void @"_ZN9__gnu_cxx5__ops15__iter_comp_valIZ15unicode_tolowerjE3$_0EENS0_14_Iter_comp_valIT_EES4_"() #6 {
  %1 = alloca %"struct.__gnu_cxx::__ops::_Iter_comp_val", align 1
  call void @"_ZN9__gnu_cxx5__ops14_Iter_comp_valIZ15unicode_tolowerjE3$_0EC2ES2_"(ptr noundef nonnull align 1 dereferenceable(1) %1)
  ret void
}

; Function Attrs: mustprogress nounwind uwtable
define linkonce_odr noundef i64 @_ZNKSt16initializer_listISt4pairIjjEE4sizeEv(ptr noundef nonnull align 8 dereferenceable(16) %0) #0 comdat align 2 {
  %2 = alloca ptr, align 8
  store ptr %0, ptr %2, align 8, !tbaa !57
  %3 = load ptr, ptr %2, align 8
  %4 = getelementptr inbounds nuw %"class.std::initializer_list.36", ptr %3, i32 0, i32 1
  %5 = load i64, ptr %4, align 8, !tbaa !408
  ret i64 %5
}

; Function Attrs: inlinehint mustprogress uwtable
define internal noundef ptr @"_ZSt11lower_boundIPKSt4pairIjjEjZ15unicode_tolowerjE3$_0ET_S5_S5_RKT0_T1_"(ptr noundef %0, ptr noundef %1, ptr noundef nonnull align 4 dereferenceable(4) %2) #6 {
  %4 = alloca ptr, align 8
  %5 = alloca ptr, align 8
  %6 = alloca ptr, align 8
  store ptr %0, ptr %4, align 8, !tbaa !59
  store ptr %1, ptr %5, align 8, !tbaa !59
  store ptr %2, ptr %6, align 8, !tbaa !37
  %7 = load ptr, ptr %4, align 8, !tbaa !59
  %8 = load ptr, ptr %5, align 8, !tbaa !59
  %9 = load ptr, ptr %6, align 8, !tbaa !37
  call void @"_ZN9__gnu_cxx5__ops15__iter_comp_valIZ15unicode_tolowerjE3$_0EENS0_14_Iter_comp_valIT_EES4_"()
  %10 = call noundef ptr @"_ZSt13__lower_boundIPKSt4pairIjjEjN9__gnu_cxx5__ops14_Iter_comp_valIZ15unicode_tolowerjE3$_0EEET_S9_S9_RKT0_T1_"(ptr noundef %7, ptr noundef %8, ptr noundef nonnull align 4 dereferenceable(4) %9)
  ret ptr %10
}

; Function Attrs: mustprogress nounwind uwtable
define linkonce_odr noundef ptr @_ZNKSt16initializer_listISt4pairIjjEE3endEv(ptr noundef nonnull align 8 dereferenceable(16) %0) #0 comdat align 2 {
  %2 = alloca ptr, align 8
  store ptr %0, ptr %2, align 8, !tbaa !57
  %3 = load ptr, ptr %2, align 8
  %4 = call noundef ptr @_ZNKSt16initializer_listISt4pairIjjEE5beginEv(ptr noundef nonnull align 8 dereferenceable(16) %3) #9
  %5 = call noundef i64 @_ZNKSt16initializer_listISt4pairIjjEE4sizeEv(ptr noundef nonnull align 8 dereferenceable(16) %3) #9
  %6 = getelementptr inbounds nuw %"struct.std::pair", ptr %4, i64 %5
  ret ptr %6
}

; Function Attrs: mustprogress nounwind uwtable
define linkonce_odr noundef ptr @_ZNKSt16initializer_listISt4pairIjjEE5beginEv(ptr noundef nonnull align 8 dereferenceable(16) %0) #0 comdat align 2 {
  %2 = alloca ptr, align 8
  store ptr %0, ptr %2, align 8, !tbaa !57
  %3 = load ptr, ptr %2, align 8
  %4 = getelementptr inbounds nuw %"class.std::initializer_list.36", ptr %3, i32 0, i32 0
  %5 = load ptr, ptr %4, align 8, !tbaa !82
  ret ptr %5
}

; Function Attrs: mustprogress uwtable
define noundef i32 @_Z15unicode_tolowerj(i32 noundef %0) #3 {
  %2 = alloca i32, align 4
  %3 = alloca i32, align 4
  %4 = alloca ptr, align 8
  %5 = alloca i32, align 4
  store i32 %0, ptr %3, align 4, !tbaa !13
  call void @llvm.lifetime.start.p0(i64 8, ptr %4) #9
  %6 = call noundef ptr @_ZNKSt16initializer_listISt4pairIjjEE5beginEv(ptr noundef nonnull align 8 dereferenceable(16) @unicode_map_lowercase) #9
  %7 = call noundef ptr @_ZNKSt16initializer_listISt4pairIjjEE3endEv(ptr noundef nonnull align 8 dereferenceable(16) @unicode_map_lowercase) #9
  %8 = call noundef ptr @"_ZSt11lower_boundIPKSt4pairIjjEjZ15unicode_tolowerjE3$_0ET_S5_S5_RKT0_T1_"(ptr noundef %6, ptr noundef %7, ptr noundef nonnull align 4 dereferenceable(4) %3)
  store ptr %8, ptr %4, align 8, !tbaa !59
  %9 = load ptr, ptr %4, align 8, !tbaa !59
  %10 = call noundef ptr @_ZNKSt16initializer_listISt4pairIjjEE3endEv(ptr noundef nonnull align 8 dereferenceable(16) @unicode_map_lowercase) #9
  %11 = icmp ne ptr %9, %10
  br i1 %11, label %12, label %22

12:                                               ; preds = %1
  %13 = load ptr, ptr %4, align 8, !tbaa !59
  %14 = getelementptr inbounds nuw %"struct.std::pair", ptr %13, i32 0, i32 0
  %15 = load i32, ptr %14, align 4, !tbaa !81
  %16 = load i32, ptr %3, align 4, !tbaa !13
  %17 = icmp eq i32 %15, %16
  br i1 %17, label %18, label %22

18:                                               ; preds = %12
  %19 = load ptr, ptr %4, align 8, !tbaa !59
  %20 = getelementptr inbounds nuw %"struct.std::pair", ptr %19, i32 0, i32 1
  %21 = load i32, ptr %20, align 4, !tbaa !61
  store i32 %21, ptr %2, align 4
  store i32 1, ptr %5, align 4
  br label %24

22:                                               ; preds = %12, %1
  %23 = load i32, ptr %3, align 4, !tbaa !13
  store i32 %23, ptr %2, align 4
  store i32 1, ptr %5, align 4
  br label %24

24:                                               ; preds = %22, %18
  call void @llvm.lifetime.end.p0(i64 8, ptr %4) #9
  %25 = load i32, ptr %2, align 4
  ret i32 %25
}