; Function Attrs: mustprogress nofree norecurse nosync nounwind willreturn memory(read, inaccessiblemem: none) uwtable
define noundef i32 @_Z15unicode_tolowerj(i32 noundef %0) local_unnamed_addr #13 {
  %2 = alloca i32, align 4
  store i32 %0, ptr %2, align 4, !tbaa !20
  %3 = load ptr, ptr @unicode_map_lowercase, align 8, !tbaa !51
  %4 = load i64, ptr getelementptr inbounds nuw (i8, ptr @unicode_map_lowercase, i64 8), align 8, !tbaa !54
  %5 = getelementptr inbounds nuw %"struct.std::pair", ptr %3, i64 %4
  %6 = icmp sgt i64 %4, 0
  br i1 %6, label %_ZSt7advanceIPKSt4pairIjjElEvRT_T0_.exit.i.i, label %"_ZSt11lower_boundIPKSt4pairIjjEjZ15unicode_tolowerjE3$_0ET_S5_S5_RKT0_T1_.exit"

_ZSt7advanceIPKSt4pairIjjElEvRT_T0_.exit.i.i:     ; preds = %1, %_ZSt7advanceIPKSt4pairIjjElEvRT_T0_.exit.i.i
  %.05.i.i = phi ptr [ %.1.i.i, %_ZSt7advanceIPKSt4pairIjjElEvRT_T0_.exit.i.i ], [ %3, %1 ]
  %.0114.i.i = phi i64 [ %.112.i.i, %_ZSt7advanceIPKSt4pairIjjElEvRT_T0_.exit.i.i ], [ %4, %1 ]
  %7 = lshr i64 %.0114.i.i, 1
  %8 = getelementptr inbounds nuw %"struct.std::pair", ptr %.05.i.i, i64 %7
  %.val.i.i = load i32, ptr %8, align 4, !tbaa !91
  %9 = icmp ult i32 %.val.i.i, %0
  %10 = getelementptr inbounds nuw i8, ptr %8, i64 8
  %11 = xor i64 %7, -1
  %12 = add nsw i64 %.0114.i.i, %11
  %.112.i.i = select i1 %9, i64 %12, i64 %7
  %.1.i.i = select i1 %9, ptr %10, ptr %.05.i.i
  %13 = icmp sgt i64 %.112.i.i, 0
  br i1 %13, label %_ZSt7advanceIPKSt4pairIjjElEvRT_T0_.exit.i.i, label %"_ZSt11lower_boundIPKSt4pairIjjEjZ15unicode_tolowerjE3$_0ET_S5_S5_RKT0_T1_.exit", !llvm.loop !93

"_ZSt11lower_boundIPKSt4pairIjjEjZ15unicode_tolowerjE3$_0ET_S5_S5_RKT0_T1_.exit": ; preds = %_ZSt7advanceIPKSt4pairIjjElEvRT_T0_.exit.i.i, %1
  %.0.lcssa.i.i = phi ptr [ %3, %1 ], [ %.1.i.i, %_ZSt7advanceIPKSt4pairIjjElEvRT_T0_.exit.i.i ]
  %.not = icmp eq ptr %.0.lcssa.i.i, %5
  br i1 %.not, label %18, label %14

14:                                               ; preds = %"_ZSt11lower_boundIPKSt4pairIjjEjZ15unicode_tolowerjE3$_0ET_S5_S5_RKT0_T1_.exit"
  %15 = load i32, ptr %.0.lcssa.i.i, align 4, !tbaa !91
  %16 = icmp eq i32 %15, %0
  %17 = getelementptr inbounds nuw i8, ptr %.0.lcssa.i.i, i64 4
  %spec.select = select i1 %16, ptr %17, ptr %2
  %.0.pre = load i32, ptr %spec.select, align 4, !tbaa !20
  br label %18

18:                                               ; preds = %14, %"_ZSt11lower_boundIPKSt4pairIjjEjZ15unicode_tolowerjE3$_0ET_S5_S5_RKT0_T1_.exit"
  %.0 = phi i32 [ %0, %"_ZSt11lower_boundIPKSt4pairIjjEjZ15unicode_tolowerjE3$_0ET_S5_S5_RKT0_T1_.exit" ], [ %.0.pre, %14 ]
  ret i32 %.0
}